; Function Attrs: nofree norecurse nosync nounwind memory(argmem: readwrite) uwtable
define internal void @SDL_ConvertMonoTo61(ptr noundef writeonly captures(none) %0, ptr noundef readonly captures(none) %1, i32 noundef %2) #5 {
  %.not20 = icmp eq i32 %2, 0
  br i1 %.not20, label %._crit_edge, label %.lr.ph.preheader

.lr.ph.preheader:                                 ; preds = %3
  %4 = add nsw i32 %2, -1
  %5 = mul nsw i32 %4, 7
  %6 = sext i32 %5 to i64
  %7 = getelementptr inbounds float, ptr %0, i64 %6
  %8 = sext i32 %4 to i64
  %9 = getelementptr inbounds float, ptr %1, i64 %8
  br label %.lr.ph

.lr.ph:                                           ; preds = %.lr.ph.preheader, %.lr.ph
  %.023 = phi ptr [ %15, %.lr.ph ], [ %7, %.lr.ph.preheader ]
  %.01822 = phi i32 [ %13, %.lr.ph ], [ %2, %.lr.ph.preheader ]
  %.01921 = phi ptr [ %14, %.lr.ph ], [ %9, %.lr.ph.preheader ]
  %10 = load float, ptr %.01921, align 4
  %11 = getelementptr inbounds nuw i8, ptr %.023, i64 8
  %12 = getelementptr inbounds nuw i8, ptr %.023, i64 4
  tail call void @llvm.memset.p0.i64(ptr noundef nonnull align 4 dereferenceable(20) %11, i8 0, i64 20, i1 false)
  store float %10, ptr %12, align 4
  store float %10, ptr %.023, align 4
  %13 = add nsw i32 %.01822, -1
  %14 = getelementptr inbounds i8, ptr %.01921, i64 -4
  %15 = getelementptr inbounds i8, ptr %.023, i64 -28
  %.not = icmp eq i32 %13, 0
  br i1 %.not, label %._crit_edge, label %.lr.ph, !llvm.loop !56

._crit_edge:                                      ; preds = %.lr.ph, %3
  ret void
}